target datalayout = "e-m:e-p270:32:32-p271:32:32-p272:64:64-i64:64-i128:128-f80:128-n8:16:32:64-S128"
target triple = "x86_64-pc-linux-gnu"

@.str.11 = private unnamed_addr constant [43 x i8] c"GetYUVPlanes(): Unsupported YUV format: %s\00", align 1
@.str.12 = private unnamed_addr constant [44 x i8] c"GetYUVPlanes[2]: Unsupported YUV format: %s\00", align 1

; Function Attrs: nounwind uwtable
define internal zeroext i1 @GetYUVPlanes(i32 noundef %0, i32 noundef %1, i32 noundef %2, ptr noundef %3, i32 noundef %4, ptr noundef %5, ptr noundef %6, ptr noundef %7, ptr noundef %8, ptr noundef %9) #0 {
  %11 = alloca i1, align 1
  %12 = alloca i32, align 4
  %13 = alloca i32, align 4
  %14 = alloca i32, align 4
  %15 = alloca ptr, align 8
  %16 = alloca i32, align 4
  %17 = alloca ptr, align 8
  %18 = alloca ptr, align 8
  %19 = alloca ptr, align 8
  %20 = alloca ptr, align 8
  %21 = alloca ptr, align 8
  %22 = alloca [3 x ptr], align 16
  %23 = alloca [3 x i32], align 4
  %24 = alloca i32, align 4
  %25 = alloca i32, align 4
  store i32 %0, ptr %12, align 4
  store i32 %1, ptr %13, align 4
  store i32 %2, ptr %14, align 4
  store ptr %3, ptr %15, align 8
  store i32 %4, ptr %16, align 4
  store ptr %5, ptr %17, align 8
  store ptr %6, ptr %18, align 8
  store ptr %7, ptr %19, align 8
  store ptr %8, ptr %20, align 8
  store ptr %9, ptr %21, align 8
  call void @llvm.lifetime.start.p0(i64 24, ptr %22) #7
  call void @llvm.memset.p0.i64(ptr align 16 %22, i8 0, i64 24, i1 false)
  call void @llvm.lifetime.start.p0(i64 12, ptr %23) #7
  call void @llvm.memset.p0.i64(ptr align 4 %23, i8 0, i64 12, i1 false)
  call void @llvm.lifetime.start.p0(i64 4, ptr %24) #7
  %26 = load i32, ptr %14, align 4
  switch i32 %26, label %123 [
    i32 842094169, label %27
    i32 1448433993, label %27
    i32 844715353, label %62
    i32 1498831189, label %62
    i32 1431918169, label %62
    i32 842094158, label %67
    i32 825382478, label %67
    i32 808530000, label %87
  ]

27:                                               ; preds = %10, %10
  %28 = load i32, ptr %16, align 4
  %29 = getelementptr inbounds [3 x i32], ptr %23, i64 0, i64 0
  store i32 %28, ptr %29, align 4
  %30 = getelementptr inbounds [3 x i32], ptr %23, i64 0, i64 0
  %31 = load i32, ptr %30, align 4
  %32 = add nsw i32 %31, 1
  %33 = sdiv i32 %32, 2
  %34 = getelementptr inbounds [3 x i32], ptr %23, i64 0, i64 1
  store i32 %33, ptr %34, align 4
  %35 = getelementptr inbounds [3 x i32], ptr %23, i64 0, i64 0
  %36 = load i32, ptr %35, align 4
  %37 = add nsw i32 %36, 1
  %38 = sdiv i32 %37, 2
  %39 = getelementptr inbounds [3 x i32], ptr %23, i64 0, i64 2
  store i32 %38, ptr %39, align 4
  %40 = load ptr, ptr %15, align 8
  %41 = getelementptr inbounds [3 x ptr], ptr %22, i64 0, i64 0
  store ptr %40, ptr %41, align 16
  %42 = getelementptr inbounds [3 x ptr], ptr %22, i64 0, i64 0
  %43 = load ptr, ptr %42, align 16
  %44 = getelementptr inbounds [3 x i32], ptr %23, i64 0, i64 0
  %45 = load i32, ptr %44, align 4
  %46 = load i32, ptr %13, align 4
  %47 = mul nsw i32 %45, %46
  %48 = sext i32 %47 to i64
  %49 = getelementptr inbounds i8, ptr %43, i64 %48
  %50 = getelementptr inbounds [3 x ptr], ptr %22, i64 0, i64 1
  store ptr %49, ptr %50, align 8
  %51 = getelementptr inbounds [3 x ptr], ptr %22, i64 0, i64 1
  %52 = load ptr, ptr %51, align 8
  %53 = getelementptr inbounds [3 x i32], ptr %23, i64 0, i64 1
  %54 = load i32, ptr %53, align 4
  %55 = load i32, ptr %13, align 4
  %56 = add nsw i32 %55, 1
  %57 = sdiv i32 %56, 2
  %58 = mul nsw i32 %54, %57
  %59 = sext i32 %58 to i64
  %60 = getelementptr inbounds i8, ptr %52, i64 %59
  %61 = getelementptr inbounds [3 x ptr], ptr %22, i64 0, i64 2
  store ptr %60, ptr %61, align 16
  br label %127

62:                                               ; preds = %10, %10, %10
  %63 = load i32, ptr %16, align 4
  %64 = getelementptr inbounds [3 x i32], ptr %23, i64 0, i64 0
  store i32 %63, ptr %64, align 4
  %65 = load ptr, ptr %15, align 8
  %66 = getelementptr inbounds [3 x ptr], ptr %22, i64 0, i64 0
  store ptr %65, ptr %66, align 16
  br label %127

67:                                               ; preds = %10, %10
  %68 = load i32, ptr %16, align 4
  %69 = getelementptr inbounds [3 x i32], ptr %23, i64 0, i64 0
  store i32 %68, ptr %69, align 4
  %70 = getelementptr inbounds [3 x i32], ptr %23, i64 0, i64 0
  %71 = load i32, ptr %70, align 4
  %72 = add nsw i32 %71, 1
  %73 = sdiv i32 %72, 2
  %74 = mul nsw i32 2, %73
  %75 = getelementptr inbounds [3 x i32], ptr %23, i64 0, i64 1
  store i32 %74, ptr %75, align 4
  %76 = load ptr, ptr %15, align 8
  %77 = getelementptr inbounds [3 x ptr], ptr %22, i64 0, i64 0
  store ptr %76, ptr %77, align 16
  %78 = getelementptr inbounds [3 x ptr], ptr %22, i64 0, i64 0
  %79 = load ptr, ptr %78, align 16
  %80 = getelementptr inbounds [3 x i32], ptr %23, i64 0, i64 0
  %81 = load i32, ptr %80, align 4
  %82 = load i32, ptr %13, align 4
  %83 = mul nsw i32 %81, %82
  %84 = sext i32 %83 to i64
  %85 = getelementptr inbounds i8, ptr %79, i64 %84
  %86 = getelementptr inbounds [3 x ptr], ptr %22, i64 0, i64 1
  store ptr %85, ptr %86, align 8
  br label %127

87:                                               ; preds = %10
  %88 = load i32, ptr %16, align 4
  %89 = getelementptr inbounds [3 x i32], ptr %23, i64 0, i64 0
  store i32 %88, ptr %89, align 4
  %90 = load i32, ptr %12, align 4
  %91 = add nsw i32 %90, 1
  %92 = sdiv i32 %91, 2
  %93 = mul nsw i32 %92, 2
  store i32 %93, ptr %24, align 4
  %94 = getelementptr inbounds [3 x i32], ptr %23, i64 0, i64 0
  %95 = load i32, ptr %94, align 4
  %96 = load i32, ptr %24, align 4
  %97 = sext i32 %96 to i64
  %98 = mul i64 %97, 2
  %99 = trunc i64 %98 to i32
  %100 = icmp sgt i32 %95, %99
  br i1 %100, label %101, label %104

101:                                              ; preds = %87
  %102 = getelementptr inbounds [3 x i32], ptr %23, i64 0, i64 0
  %103 = load i32, ptr %102, align 4
  br label %109

104:                                              ; preds = %87
  %105 = load i32, ptr %24, align 4
  %106 = sext i32 %105 to i64
  %107 = mul i64 %106, 2
  %108 = trunc i64 %107 to i32
  br label %109

109:                                              ; preds = %104, %101
  %110 = phi i32 [ %103, %101 ], [ %108, %104 ]
  %111 = getelementptr inbounds [3 x i32], ptr %23, i64 0, i64 1
  store i32 %110, ptr %111, align 4
  %112 = load ptr, ptr %15, align 8
  %113 = getelementptr inbounds [3 x ptr], ptr %22, i64 0, i64 0
  store ptr %112, ptr %113, align 16
  %114 = getelementptr inbounds [3 x ptr], ptr %22, i64 0, i64 0
  %115 = load ptr, ptr %114, align 16
  %116 = getelementptr inbounds [3 x i32], ptr %23, i64 0, i64 0
  %117 = load i32, ptr %116, align 4
  %118 = load i32, ptr %13, align 4
  %119 = mul nsw i32 %117, %118
  %120 = sext i32 %119 to i64
  %121 = getelementptr inbounds i8, ptr %115, i64 %120
  %122 = getelementptr inbounds [3 x ptr], ptr %22, i64 0, i64 1
  store ptr %121, ptr %122, align 8
  br label %127

123:                                              ; preds = %10
  %124 = load i32, ptr %14, align 4
  %125 = call ptr @SDL_GetPixelFormatName_REAL(i32 noundef %124)
  %126 = call zeroext i1 (ptr, ...) @SDL_SetError_REAL(ptr noundef @.str.11, ptr noundef %125)
  store i1 %126, ptr %11, align 1
  store i32 1, ptr %25, align 4
  br label %272

127:                                              ; preds = %109, %67, %62, %27
  %128 = load i32, ptr %14, align 4
  switch i32 %128, label %267 [
    i32 842094169, label %129
    i32 1448433993, label %145
    i32 844715353, label %161
    i32 1498831189, label %179
    i32 1431918169, label %198
    i32 842094158, label %216
    i32 825382478, label %233
    i32 808530000, label %250
  ]

129:                                              ; preds = %127
  %130 = getelementptr inbounds [3 x ptr], ptr %22, i64 0, i64 0
  %131 = load ptr, ptr %130, align 16
  %132 = load ptr, ptr %17, align 8
  store ptr %131, ptr %132, align 8
  %133 = getelementptr inbounds [3 x i32], ptr %23, i64 0, i64 0
  %134 = load i32, ptr %133, align 4
  %135 = load ptr, ptr %20, align 8
  store i32 %134, ptr %135, align 4
  %136 = getelementptr inbounds [3 x ptr], ptr %22, i64 0, i64 1
  %137 = load ptr, ptr %136, align 8
  %138 = load ptr, ptr %19, align 8
  store ptr %137, ptr %138, align 8
  %139 = getelementptr inbounds [3 x ptr], ptr %22, i64 0, i64 2
  %140 = load ptr, ptr %139, align 16
  %141 = load ptr, ptr %18, align 8
  store ptr %140, ptr %141, align 8
  %142 = getelementptr inbounds [3 x i32], ptr %23, i64 0, i64 1
  %143 = load i32, ptr %142, align 4
  %144 = load ptr, ptr %21, align 8
  store i32 %143, ptr %144, align 4
  br label %271

145:                                              ; preds = %127
  %146 = getelementptr inbounds [3 x ptr], ptr %22, i64 0, i64 0
  %147 = load ptr, ptr %146, align 16
  %148 = load ptr, ptr %17, align 8
  store ptr %147, ptr %148, align 8
  %149 = getelementptr inbounds [3 x i32], ptr %23, i64 0, i64 0
  %150 = load i32, ptr %149, align 4
  %151 = load ptr, ptr %20, align 8
  store i32 %150, ptr %151, align 4
  %152 = getelementptr inbounds [3 x ptr], ptr %22, i64 0, i64 2
  %153 = load ptr, ptr %152, align 16
  %154 = load ptr, ptr %19, align 8
  store ptr %153, ptr %154, align 8
  %155 = getelementptr inbounds [3 x ptr], ptr %22, i64 0, i64 1
  %156 = load ptr, ptr %155, align 8
  %157 = load ptr, ptr %18, align 8
  store ptr %156, ptr %157, align 8
  %158 = getelementptr inbounds [3 x i32], ptr %23, i64 0, i64 1
  %159 = load i32, ptr %158, align 4
  %160 = load ptr, ptr %21, align 8
  store i32 %159, ptr %160, align 4
  br label %271

161:                                              ; preds = %127
  %162 = getelementptr inbounds [3 x ptr], ptr %22, i64 0, i64 0
  %163 = load ptr, ptr %162, align 16
  %164 = load ptr, ptr %17, align 8
  store ptr %163, ptr %164, align 8
  %165 = getelementptr inbounds [3 x i32], ptr %23, i64 0, i64 0
  %166 = load i32, ptr %165, align 4
  %167 = load ptr, ptr %20, align 8
  store i32 %166, ptr %167, align 4
  %168 = load ptr, ptr %17, align 8
  %169 = load ptr, ptr %168, align 8
  %170 = getelementptr inbounds i8, ptr %169, i64 3
  %171 = load ptr, ptr %19, align 8
  store ptr %170, ptr %171, align 8
  %172 = load ptr, ptr %17, align 8
  %173 = load ptr, ptr %172, align 8
  %174 = getelementptr inbounds i8, ptr %173, i64 1
  %175 = load ptr, ptr %18, align 8
  store ptr %174, ptr %175, align 8
  %176 = getelementptr inbounds [3 x i32], ptr %23, i64 0, i64 0
  %177 = load i32, ptr %176, align 4
  %178 = load ptr, ptr %21, align 8
  store i32 %177, ptr %178, align 4
  br label %271

179:                                              ; preds = %127
  %180 = getelementptr inbounds [3 x ptr], ptr %22, i64 0, i64 0
  %181 = load ptr, ptr %180, align 16
  %182 = getelementptr inbounds i8, ptr %181, i64 1
  %183 = load ptr, ptr %17, align 8
  store ptr %182, ptr %183, align 8
  %184 = getelementptr inbounds [3 x i32], ptr %23, i64 0, i64 0
  %185 = load i32, ptr %184, align 4
  %186 = load ptr, ptr %20, align 8
  store i32 %185, ptr %186, align 4
  %187 = load ptr, ptr %17, align 8
  %188 = load ptr, ptr %187, align 8
  %189 = getelementptr inbounds i8, ptr %188, i64 1
  %190 = load ptr, ptr %19, align 8
  store ptr %189, ptr %190, align 8
  %191 = load ptr, ptr %17, align 8
  %192 = load ptr, ptr %191, align 8
  %193 = getelementptr inbounds i8, ptr %192, i64 -1
  %194 = load ptr, ptr %18, align 8
  store ptr %193, ptr %194, align 8
  %195 = getelementptr inbounds [3 x i32], ptr %23, i64 0, i64 0
  %196 = load i32, ptr %195, align 4
  %197 = load ptr, ptr %21, align 8
  store i32 %196, ptr %197, align 4
  br label %271

198:                                              ; preds = %127
  %199 = getelementptr inbounds [3 x ptr], ptr %22, i64 0, i64 0
  %200 = load ptr, ptr %199, align 16
  %201 = load ptr, ptr %17, align 8
  store ptr %200, ptr %201, align 8
  %202 = getelementptr inbounds [3 x i32], ptr %23, i64 0, i64 0
  %203 = load i32, ptr %202, align 4
  %204 = load ptr, ptr %20, align 8
  store i32 %203, ptr %204, align 4
  %205 = load ptr, ptr %17, align 8
  %206 = load ptr, ptr %205, align 8
  %207 = getelementptr inbounds i8, ptr %206, i64 1
  %208 = load ptr, ptr %19, align 8
  store ptr %207, ptr %208, align 8
  %209 = load ptr, ptr %17, align 8
  %210 = load ptr, ptr %209, align 8
  %211 = getelementptr inbounds i8, ptr %210, i64 3
  %212 = load ptr, ptr %18, align 8
  store ptr %211, ptr %212, align 8
  %213 = getelementptr inbounds [3 x i32], ptr %23, i64 0, i64 0
  %214 = load i32, ptr %213, align 4
  %215 = load ptr, ptr %21, align 8
  store i32 %214, ptr %215, align 4
  br label %271

216:                                              ; preds = %127
  %217 = getelementptr inbounds [3 x ptr], ptr %22, i64 0, i64 0
  %218 = load ptr, ptr %217, align 16
  %219 = load ptr, ptr %17, align 8
  store ptr %218, ptr %219, align 8
  %220 = getelementptr inbounds [3 x i32], ptr %23, i64 0, i64 0
  %221 = load i32, ptr %220, align 4
  %222 = load ptr, ptr %20, align 8
  store i32 %221, ptr %222, align 4
  %223 = getelementptr inbounds [3 x ptr], ptr %22, i64 0, i64 1
  %224 = load ptr, ptr %223, align 8
  %225 = load ptr, ptr %18, align 8
  store ptr %224, ptr %225, align 8
  %226 = load ptr, ptr %18, align 8
  %227 = load ptr, ptr %226, align 8
  %228 = getelementptr inbounds i8, ptr %227, i64 1
  %229 = load ptr, ptr %19, align 8
  store ptr %228, ptr %229, align 8
  %230 = getelementptr inbounds [3 x i32], ptr %23, i64 0, i64 1
  %231 = load i32, ptr %230, align 4
  %232 = load ptr, ptr %21, align 8
  store i32 %231, ptr %232, align 4
  br label %271

233:                                              ; preds = %127
  %234 = getelementptr inbounds [3 x ptr], ptr %22, i64 0, i64 0
  %235 = load ptr, ptr %234, align 16
  %236 = load ptr, ptr %17, align 8
  store ptr %235, ptr %236, align 8
  %237 = getelementptr inbounds [3 x i32], ptr %23, i64 0, i64 0
  %238 = load i32, ptr %237, align 4
  %239 = load ptr, ptr %20, align 8
  store i32 %238, ptr %239, align 4
  %240 = getelementptr inbounds [3 x ptr], ptr %22, i64 0, i64 1
  %241 = load ptr, ptr %240, align 8
  %242 = load ptr, ptr %19, align 8
  store ptr %241, ptr %242, align 8
  %243 = load ptr, ptr %19, align 8
  %244 = load ptr, ptr %243, align 8
  %245 = getelementptr inbounds i8, ptr %244, i64 1
  %246 = load ptr, ptr %18, align 8
  store ptr %245, ptr %246, align 8
  %247 = getelementptr inbounds [3 x i32], ptr %23, i64 0, i64 1
  %248 = load i32, ptr %247, align 4
  %249 = load ptr, ptr %21, align 8
  store i32 %248, ptr %249, align 4
  br label %271

250:                                              ; preds = %127
  %251 = getelementptr inbounds [3 x ptr], ptr %22, i64 0, i64 0
  %252 = load ptr, ptr %251, align 16
  %253 = load ptr, ptr %17, align 8
  store ptr %252, ptr %253, align 8
  %254 = getelementptr inbounds [3 x i32], ptr %23, i64 0, i64 0
  %255 = load i32, ptr %254, align 4
  %256 = load ptr, ptr %20, align 8
  store i32 %255, ptr %256, align 4
  %257 = getelementptr inbounds [3 x ptr], ptr %22, i64 0, i64 1
  %258 = load ptr, ptr %257, align 8
  %259 = load ptr, ptr %18, align 8
  store ptr %258, ptr %259, align 8
  %260 = load ptr, ptr %18, align 8
  %261 = load ptr, ptr %260, align 8
  %262 = getelementptr inbounds nuw i8, ptr %261, i64 2
  %263 = load ptr, ptr %19, align 8
  store ptr %262, ptr %263, align 8
  %264 = getelementptr inbounds [3 x i32], ptr %23, i64 0, i64 1
  %265 = load i32, ptr %264, align 4
  %266 = load ptr, ptr %21, align 8
  store i32 %265, ptr %266, align 4
  br label %271

267:                                              ; preds = %127
  %268 = load i32, ptr %14, align 4
  %269 = call ptr @SDL_GetPixelFormatName_REAL(i32 noundef %268)
  %270 = call zeroext i1 (ptr, ...) @SDL_SetError_REAL(ptr noundef @.str.12, ptr noundef %269)
  store i1 %270, ptr %11, align 1
  store i32 1, ptr %25, align 4
  br label %272

271:                                              ; preds = %250, %233, %216, %198, %179, %161, %145, %129
  store i1 true, ptr %11, align 1
  store i32 1, ptr %25, align 4
  br label %272

272:                                              ; preds = %271, %267, %123
  call void @llvm.lifetime.end.p0(i64 4, ptr %24) #7
  call void @llvm.lifetime.end.p0(i64 12, ptr %23) #7
  call void @llvm.lifetime.end.p0(i64 24, ptr %22) #7
  %273 = load i1, ptr %11, align 1
  ret i1 %273
}