; Function Attrs: nounwind uwtable
define internal fastcc zeroext i1 @GetYUVPlanes(i32 noundef %0, i32 noundef %1, i32 noundef %2, ptr noundef %3, i32 noundef %4, ptr noundef nonnull captures(none) %5, ptr noundef nonnull writeonly captures(none) %6, ptr noundef nonnull writeonly captures(none) %7, ptr noundef nonnull writeonly captures(none) %8, ptr noundef nonnull writeonly captures(none) %9) unnamed_addr #0 {
  switch i32 %2, label %37 [
    i32 842094169, label %11
    i32 1448433993, label %11
    i32 844715353, label %40
    i32 1498831189, label %40
    i32 1431918169, label %40
    i32 842094158, label %22
    i32 825382478, label %22
    i32 808530000, label %.thread
  ]

11:                                               ; preds = %10, %10
  %12 = add nsw i32 %4, 1
  %13 = sdiv i32 %12, 2
  %14 = mul nsw i32 %4, %1
  %15 = sext i32 %14 to i64
  %16 = getelementptr inbounds i8, ptr %3, i64 %15
  %17 = add nsw i32 %1, 1
  %18 = sdiv i32 %17, 2
  %19 = mul nsw i32 %13, %18
  %20 = sext i32 %19 to i64
  %21 = getelementptr inbounds i8, ptr %16, i64 %20
  br label %40

22:                                               ; preds = %10, %10
  %23 = add nsw i32 %4, 1
  %24 = sdiv i32 %23, 2
  %25 = shl nsw i32 %24, 1
  %26 = mul nsw i32 %4, %1
  %27 = sext i32 %26 to i64
  %28 = getelementptr inbounds i8, ptr %3, i64 %27
  br label %40

.thread:                                          ; preds = %10
  %29 = add nsw i32 %0, 1
  %30 = sdiv i32 %29, 2
  %31 = shl i32 %30, 2
  %32 = tail call i32 @llvm.smax.i32(i32 %4, i32 %31)
  %33 = mul nsw i32 %4, %1
  %34 = sext i32 %33 to i64
  %35 = getelementptr inbounds i8, ptr %3, i64 %34
  store ptr %3, ptr %5, align 8
  store i32 %4, ptr %8, align 4
  store ptr %35, ptr %6, align 8
  %36 = getelementptr inbounds nuw i8, ptr %35, i64 2
  store ptr %36, ptr %7, align 8
  store i32 %32, ptr %9, align 4
  br label %66

37:                                               ; preds = %10
  %38 = tail call ptr @SDL_GetPixelFormatName_REAL(i32 noundef %2) #7
  %39 = tail call zeroext i1 (ptr, ...) @SDL_SetError_REAL(ptr noundef nonnull @.str.11, ptr noundef %38) #7
  br label %66

40:                                               ; preds = %10, %10, %10, %22, %11
  %.sroa.18.0 = phi ptr [ %28, %22 ], [ %16, %11 ], [ null, %10 ], [ null, %10 ], [ null, %10 ]
  %.sroa.27.0 = phi ptr [ null, %22 ], [ %21, %11 ], [ null, %10 ], [ null, %10 ], [ null, %10 ]
  %.sroa.26.0 = phi i32 [ %25, %22 ], [ %13, %11 ], [ 0, %10 ], [ 0, %10 ], [ 0, %10 ]
  switch i32 %2, label %63 [
    i32 842094169, label %41
    i32 1448433993, label %42
    i32 844715353, label %43
    i32 1498831189, label %48
    i32 1431918169, label %54
    i32 842094158, label %59
    i32 825382478, label %61
  ]

41:                                               ; preds = %40
  store ptr %3, ptr %5, align 8
  store i32 %4, ptr %8, align 4
  store ptr %.sroa.18.0, ptr %7, align 8
  store ptr %.sroa.27.0, ptr %6, align 8
  store i32 %.sroa.26.0, ptr %9, align 4
  br label %66

42:                                               ; preds = %40
  store ptr %3, ptr %5, align 8
  store i32 %4, ptr %8, align 4
  store ptr %.sroa.27.0, ptr %7, align 8
  store ptr %.sroa.18.0, ptr %6, align 8
  store i32 %.sroa.26.0, ptr %9, align 4
  br label %66

43:                                               ; preds = %40
  store ptr %3, ptr %5, align 8
  store i32 %4, ptr %8, align 4
  %44 = load ptr, ptr %5, align 8
  %45 = getelementptr inbounds nuw i8, ptr %44, i64 3
  store ptr %45, ptr %7, align 8
  %46 = load ptr, ptr %5, align 8
  %47 = getelementptr inbounds nuw i8, ptr %46, i64 1
  store ptr %47, ptr %6, align 8
  store i32 %4, ptr %9, align 4
  br label %66

48:                                               ; preds = %40
  %49 = getelementptr inbounds nuw i8, ptr %3, i64 1
  store ptr %49, ptr %5, align 8
  store i32 %4, ptr %8, align 4
  %50 = load ptr, ptr %5, align 8
  %51 = getelementptr inbounds nuw i8, ptr %50, i64 1
  store ptr %51, ptr %7, align 8
  %52 = load ptr, ptr %5, align 8
  %53 = getelementptr inbounds i8, ptr %52, i64 -1
  store ptr %53, ptr %6, align 8
  store i32 %4, ptr %9, align 4
  br label %66

54:                                               ; preds = %40
  store ptr %3, ptr %5, align 8
  store i32 %4, ptr %8, align 4
  %55 = load ptr, ptr %5, align 8
  %56 = getelementptr inbounds nuw i8, ptr %55, i64 1
  store ptr %56, ptr %7, align 8
  %57 = load ptr, ptr %5, align 8
  %58 = getelementptr inbounds nuw i8, ptr %57, i64 3
  store ptr %58, ptr %6, align 8
  store i32 %4, ptr %9, align 4
  br label %66

59:                                               ; preds = %40
  store ptr %3, ptr %5, align 8
  store i32 %4, ptr %8, align 4
  store ptr %.sroa.18.0, ptr %6, align 8
  %60 = getelementptr inbounds nuw i8, ptr %.sroa.18.0, i64 1
  store ptr %60, ptr %7, align 8
  store i32 %.sroa.26.0, ptr %9, align 4
  br label %66

61:                                               ; preds = %40
  store ptr %3, ptr %5, align 8
  store i32 %4, ptr %8, align 4
  store ptr %.sroa.18.0, ptr %7, align 8
  %62 = getelementptr inbounds nuw i8, ptr %.sroa.18.0, i64 1
  store ptr %62, ptr %6, align 8
  store i32 %.sroa.26.0, ptr %9, align 4
  br label %66

63:                                               ; preds = %40
  %64 = tail call ptr @SDL_GetPixelFormatName_REAL(i32 noundef %2) #7
  %65 = tail call zeroext i1 (ptr, ...) @SDL_SetError_REAL(ptr noundef nonnull @.str.12, ptr noundef %64) #7
  br label %66

66:                                               ; preds = %41, %42, %43, %48, %54, %59, %61, %.thread, %63, %37
  %.0 = phi i1 [ %39, %37 ], [ %65, %63 ], [ true, %.thread ], [ true, %61 ], [ true, %59 ], [ true, %54 ], [ true, %48 ], [ true, %43 ], [ true, %42 ], [ true, %41 ]
  ret i1 %.0
}